target datalayout = "e-m:e-p270:32:32-p271:32:32-p272:64:64-i64:64-i128:128-f80:128-n8:16:32:64-S128"
target triple = "x86_64-pc-linux-gnu"

@.str.201 = private unnamed_addr constant [6 x i8] c"FILE*\00", align 1
@.str.207 = private unnamed_addr constant [29 x i8] c"attempt to use a closed file\00", align 1

; Function Attrs: nounwind uwtable
define internal ptr @tofile(ptr noundef %0) #0 {
  %2 = alloca ptr, align 8
  %3 = alloca ptr, align 8
  store ptr %0, ptr %2, align 8, !tbaa !11
  call void @llvm.lifetime.start.p0(i64 8, ptr %3) #14
  %4 = load ptr, ptr %2, align 8, !tbaa !11
  %5 = call ptr @luaL_checkudata(ptr noundef %4, i32 noundef 1, ptr noundef @.str.201)
  store ptr %5, ptr %3, align 8, !tbaa !441
  %6 = load ptr, ptr %3, align 8, !tbaa !441
  %7 = load ptr, ptr %6, align 8, !tbaa !17
  %8 = icmp eq ptr %7, null
  br i1 %8, label %9, label %12

9:                                                ; preds = %1
  %10 = load ptr, ptr %2, align 8, !tbaa !11
  %11 = call i32 (ptr, ptr, ...) @luaL_error(ptr noundef %10, ptr noundef @.str.207)
  br label %12

12:                                               ; preds = %9, %1
  %13 = load ptr, ptr %3, align 8, !tbaa !441
  %14 = load ptr, ptr %13, align 8, !tbaa !17
  call void @llvm.lifetime.end.p0(i64 8, ptr %3) #14
  ret ptr %14
}

; Function Attrs: nounwind uwtable
define internal i32 @f_write(ptr noundef %0) #0 {
  %2 = alloca ptr, align 8
  store ptr %0, ptr %2, align 8, !tbaa !11
  %3 = load ptr, ptr %2, align 8, !tbaa !11
  %4 = load ptr, ptr %2, align 8, !tbaa !11
  %5 = call ptr @tofile(ptr noundef %4)
  %6 = call i32 @g_write(ptr noundef %3, ptr noundef %5, i32 noundef 2)
  ret i32 %6
}