; Function Attrs: nounwind uwtable
define internal range(i32 1, 4) i32 @f_write(ptr noundef %0) #0 {
  %2 = tail call fastcc ptr @luaL_checkudata(ptr noundef %0)
  %3 = load ptr, ptr %2, align 8, !tbaa !81
  %4 = icmp eq ptr %3, null
  br i1 %4, label %5, label %tofile.exit

5:                                                ; preds = %1
  tail call void (ptr, ptr, ...) @luaL_error(ptr noundef %0, ptr noundef nonnull @.str.207)
  unreachable

tofile.exit:                                      ; preds = %1
  %6 = tail call fastcc i32 @g_write(ptr noundef %0, ptr noundef nonnull %3, i32 noundef 2)
  ret i32 %6
}